target datalayout = "e-m:e-p270:32:32-p271:32:32-p272:64:64-i64:64-i128:128-f80:128-n8:16:32:64-S128"
target triple = "x86_64-pc-linux-gnu"

%struct.wtap_reader = type { i32, i64, i64, i32, %struct.wtap_reader_buf, %struct.wtap_reader_buf, i8, i64, i64, i32, i32, i8, i64, i8, i32, ptr, %struct.z_stream_s, i8, ptr, ptr, %struct.LZ4F_frameInfo_t, [19 x i8], ptr, ptr }
%struct.wtap_reader_buf = type { ptr, ptr, i32 }
%struct.z_stream_s = type { ptr, i32, i64, ptr, i32, i64, ptr, ptr, ptr, ptr, ptr, i32, i64, i64 }
%struct.LZ4F_frameInfo_t = type { i32, i32, i32, i32, i64, i32, i32 }

; Function Attrs: alwaysinline nounwind
define internal ptr @memcpy.inline(ptr noalias %0, ptr noalias %1, i64 %2) #10 {
  %4 = alloca ptr, align 8
  %5 = alloca ptr, align 8
  %6 = alloca i64, align 8
  store ptr %0, ptr %4, align 8
  store ptr %1, ptr %5, align 8
  store i64 %2, ptr %6, align 8
  %7 = load ptr, ptr %4, align 8
  %8 = load ptr, ptr %5, align 8
  %9 = load i64, ptr %6, align 8
  %10 = load ptr, ptr %4, align 8
  %11 = call i64 @llvm.objectsize.i64.p0(ptr %10, i1 false, i1 true, i1 true)
  %12 = call ptr @__memcpy_chk(ptr noundef %7, ptr noundef %8, i64 noundef %9, i64 noundef %11) #14
  ret ptr %12
}

; Function Attrs: null_pointer_is_valid sspstrong uwtable
define internal i32 @gz_skip(ptr noundef %0, i64 noundef %1) #0 {
  %3 = alloca i32, align 4
  %4 = alloca ptr, align 8
  %5 = alloca i64, align 8
  %6 = alloca i32, align 4
  %7 = alloca i32, align 4
  store ptr %0, ptr %4, align 8
  store i64 %1, ptr %5, align 8
  call void @llvm.lifetime.start.p0(i64 4, ptr %6) #14
  br label %8

8:                                                ; preds = %84, %2
  %9 = load i64, ptr %5, align 8
  %10 = icmp ne i64 %9, 0
  br i1 %10, label %11, label %85

11:                                               ; preds = %8
  %12 = load ptr, ptr %4, align 8
  %13 = getelementptr inbounds nuw %struct.wtap_reader, ptr %12, i32 0, i32 5
  %14 = getelementptr inbounds nuw %struct.wtap_reader_buf, ptr %13, i32 0, i32 2
  %15 = load i32, ptr %14, align 8
  %16 = icmp ne i32 %15, 0
  br i1 %16, label %17, label %58

17:                                               ; preds = %11
  %18 = load ptr, ptr %4, align 8
  %19 = getelementptr inbounds nuw %struct.wtap_reader, ptr %18, i32 0, i32 5
  %20 = getelementptr inbounds nuw %struct.wtap_reader_buf, ptr %19, i32 0, i32 2
  %21 = load i32, ptr %20, align 8
  %22 = zext i32 %21 to i64
  %23 = load i64, ptr %5, align 8
  %24 = icmp sgt i64 %22, %23
  br i1 %24, label %25, label %28

25:                                               ; preds = %17
  %26 = load i64, ptr %5, align 8
  %27 = trunc i64 %26 to i32
  br label %33

28:                                               ; preds = %17
  %29 = load ptr, ptr %4, align 8
  %30 = getelementptr inbounds nuw %struct.wtap_reader, ptr %29, i32 0, i32 5
  %31 = getelementptr inbounds nuw %struct.wtap_reader_buf, ptr %30, i32 0, i32 2
  %32 = load i32, ptr %31, align 8
  br label %33

33:                                               ; preds = %28, %25
  %34 = phi i32 [ %27, %25 ], [ %32, %28 ]
  store i32 %34, ptr %6, align 4
  %35 = load i32, ptr %6, align 4
  %36 = load ptr, ptr %4, align 8
  %37 = getelementptr inbounds nuw %struct.wtap_reader, ptr %36, i32 0, i32 5
  %38 = getelementptr inbounds nuw %struct.wtap_reader_buf, ptr %37, i32 0, i32 2
  %39 = load i32, ptr %38, align 8
  %40 = sub i32 %39, %35
  store i32 %40, ptr %38, align 8
  %41 = load i32, ptr %6, align 4
  %42 = load ptr, ptr %4, align 8
  %43 = getelementptr inbounds nuw %struct.wtap_reader, ptr %42, i32 0, i32 5
  %44 = getelementptr inbounds nuw %struct.wtap_reader_buf, ptr %43, i32 0, i32 1
  %45 = load ptr, ptr %44, align 8
  %46 = zext i32 %41 to i64
  %47 = getelementptr i8, ptr %45, i64 %46
  store ptr %47, ptr %44, align 8
  %48 = load i32, ptr %6, align 4
  %49 = zext i32 %48 to i64
  %50 = load ptr, ptr %4, align 8
  %51 = getelementptr inbounds nuw %struct.wtap_reader, ptr %50, i32 0, i32 2
  %52 = load i64, ptr %51, align 8
  %53 = add i64 %52, %49
  store i64 %53, ptr %51, align 8
  %54 = load i32, ptr %6, align 4
  %55 = zext i32 %54 to i64
  %56 = load i64, ptr %5, align 8
  %57 = sub i64 %56, %55
  store i64 %57, ptr %5, align 8
  br label %84

58:                                               ; preds = %11
  %59 = load ptr, ptr %4, align 8
  %60 = getelementptr inbounds nuw %struct.wtap_reader, ptr %59, i32 0, i32 14
  %61 = load i32, ptr %60, align 4
  %62 = icmp ne i32 %61, 0
  br i1 %62, label %63, label %64

63:                                               ; preds = %58
  store i32 -1, ptr %3, align 4
  store i32 1, ptr %7, align 4
  br label %86

64:                                               ; preds = %58
  %65 = load ptr, ptr %4, align 8
  %66 = getelementptr inbounds nuw %struct.wtap_reader, ptr %65, i32 0, i32 6
  %67 = load i8, ptr %66, align 8, !range !9, !noundef !10
  %68 = trunc i8 %67 to i1
  br i1 %68, label %69, label %76

69:                                               ; preds = %64
  %70 = load ptr, ptr %4, align 8
  %71 = getelementptr inbounds nuw %struct.wtap_reader, ptr %70, i32 0, i32 4
  %72 = getelementptr inbounds nuw %struct.wtap_reader_buf, ptr %71, i32 0, i32 2
  %73 = load i32, ptr %72, align 8
  %74 = icmp eq i32 %73, 0
  br i1 %74, label %75, label %76

75:                                               ; preds = %69
  br label %85

76:                                               ; preds = %69, %64
  %77 = load ptr, ptr %4, align 8
  %78 = call i32 @fill_out_buffer(ptr noundef %77)
  %79 = icmp eq i32 %78, -1
  br i1 %79, label %80, label %81

80:                                               ; preds = %76
  store i32 -1, ptr %3, align 4
  store i32 1, ptr %7, align 4
  br label %86

81:                                               ; preds = %76
  br label %82

82:                                               ; preds = %81
  br label %83

83:                                               ; preds = %82
  br label %84

84:                                               ; preds = %83, %33
  br label %8, !llvm.loop !17

85:                                               ; preds = %75, %8
  store i32 0, ptr %3, align 4
  store i32 1, ptr %7, align 4
  br label %86

86:                                               ; preds = %85, %80, %63
  call void @llvm.lifetime.end.p0(i64 4, ptr %6) #14
  %87 = load i32, ptr %3, align 4
  ret i32 %87
}

; Function Attrs: null_pointer_is_valid sspstrong uwtable
define ptr @file_getsp(ptr noundef %0, i32 noundef %1, ptr noundef %2) #0 {
  %4 = alloca ptr, align 8
  %5 = alloca ptr, align 8
  %6 = alloca i32, align 4
  %7 = alloca ptr, align 8
  %8 = alloca i32, align 4
  %9 = alloca i32, align 4
  %10 = alloca ptr, align 8
  %11 = alloca ptr, align 8
  %12 = alloca i32, align 4
  store ptr %0, ptr %5, align 8
  store i32 %1, ptr %6, align 4
  store ptr %2, ptr %7, align 8
  call void @llvm.lifetime.start.p0(i64 4, ptr %8) #14
  call void @llvm.lifetime.start.p0(i64 4, ptr %9) #14
  call void @llvm.lifetime.start.p0(i64 8, ptr %10) #14
  call void @llvm.lifetime.start.p0(i64 8, ptr %11) #14
  %13 = load ptr, ptr %5, align 8
  %14 = icmp eq ptr %13, null
  br i1 %14, label %18, label %15

15:                                               ; preds = %3
  %16 = load i32, ptr %6, align 4
  %17 = icmp slt i32 %16, 1
  br i1 %17, label %18, label %19

18:                                               ; preds = %15, %3
  store ptr null, ptr %4, align 8
  store i32 1, ptr %12, align 4
  br label %161

19:                                               ; preds = %15
  %20 = load ptr, ptr %7, align 8
  %21 = getelementptr inbounds nuw %struct.wtap_reader, ptr %20, i32 0, i32 14
  %22 = load i32, ptr %21, align 4
  %23 = icmp ne i32 %22, 0
  br i1 %23, label %24, label %25

24:                                               ; preds = %19
  store ptr null, ptr %4, align 8
  store i32 1, ptr %12, align 4
  br label %161

25:                                               ; preds = %19
  %26 = load ptr, ptr %7, align 8
  %27 = getelementptr inbounds nuw %struct.wtap_reader, ptr %26, i32 0, i32 13
  %28 = load i8, ptr %27, align 8, !range !9, !noundef !10
  %29 = trunc i8 %28 to i1
  br i1 %29, label %30, label %41

30:                                               ; preds = %25
  %31 = load ptr, ptr %7, align 8
  %32 = getelementptr inbounds nuw %struct.wtap_reader, ptr %31, i32 0, i32 13
  store i8 0, ptr %32, align 8
  %33 = load ptr, ptr %7, align 8
  %34 = load ptr, ptr %7, align 8
  %35 = getelementptr inbounds nuw %struct.wtap_reader, ptr %34, i32 0, i32 12
  %36 = load i64, ptr %35, align 8
  %37 = call i32 @gz_skip(ptr noundef %33, i64 noundef %36)
  %38 = icmp eq i32 %37, -1
  br i1 %38, label %39, label %40

39:                                               ; preds = %30
  store ptr null, ptr %4, align 8
  store i32 1, ptr %12, align 4
  br label %161

40:                                               ; preds = %30
  br label %41

41:                                               ; preds = %40, %25
  %42 = load ptr, ptr %5, align 8
  store ptr %42, ptr %10, align 8
  %43 = load i32, ptr %6, align 4
  %44 = sub i32 %43, 1
  store i32 %44, ptr %8, align 4
  %45 = load i32, ptr %8, align 4
  %46 = icmp ne i32 %45, 0
  br i1 %46, label %47, label %158

47:                                               ; preds = %41
  br label %48

48:                                               ; preds = %155, %47
  %49 = load ptr, ptr %7, align 8
  %50 = getelementptr inbounds nuw %struct.wtap_reader, ptr %49, i32 0, i32 5
  %51 = getelementptr inbounds nuw %struct.wtap_reader_buf, ptr %50, i32 0, i32 2
  %52 = load i32, ptr %51, align 8
  %53 = icmp eq i32 %52, 0
  br i1 %53, label %54, label %78

54:                                               ; preds = %48
  %55 = load ptr, ptr %7, align 8
  %56 = getelementptr inbounds nuw %struct.wtap_reader, ptr %55, i32 0, i32 14
  %57 = load i32, ptr %56, align 4
  %58 = icmp ne i32 %57, 0
  br i1 %58, label %59, label %60

59:                                               ; preds = %54
  store ptr null, ptr %4, align 8
  store i32 1, ptr %12, align 4
  br label %161

60:                                               ; preds = %54
  %61 = load ptr, ptr %7, align 8
  %62 = call i32 @fill_out_buffer(ptr noundef %61)
  %63 = icmp eq i32 %62, -1
  br i1 %63, label %64, label %65

64:                                               ; preds = %60
  store ptr null, ptr %4, align 8
  store i32 1, ptr %12, align 4
  br label %161

65:                                               ; preds = %60
  %66 = load ptr, ptr %7, align 8
  %67 = getelementptr inbounds nuw %struct.wtap_reader, ptr %66, i32 0, i32 5
  %68 = getelementptr inbounds nuw %struct.wtap_reader_buf, ptr %67, i32 0, i32 2
  %69 = load i32, ptr %68, align 8
  %70 = icmp eq i32 %69, 0
  br i1 %70, label %71, label %77

71:                                               ; preds = %65
  %72 = load ptr, ptr %10, align 8
  %73 = load ptr, ptr %5, align 8
  %74 = icmp eq ptr %72, %73
  br i1 %74, label %75, label %76

75:                                               ; preds = %71
  store ptr null, ptr %4, align 8
  store i32 1, ptr %12, align 4
  br label %161

76:                                               ; preds = %71
  br label %157

77:                                               ; preds = %65
  br label %78

78:                                               ; preds = %77, %48
  %79 = load ptr, ptr %7, align 8
  %80 = getelementptr inbounds nuw %struct.wtap_reader, ptr %79, i32 0, i32 5
  %81 = getelementptr inbounds nuw %struct.wtap_reader_buf, ptr %80, i32 0, i32 2
  %82 = load i32, ptr %81, align 8
  %83 = load i32, ptr %8, align 4
  %84 = icmp ugt i32 %82, %83
  br i1 %84, label %85, label %87

85:                                               ; preds = %78
  %86 = load i32, ptr %8, align 4
  br label %92

87:                                               ; preds = %78
  %88 = load ptr, ptr %7, align 8
  %89 = getelementptr inbounds nuw %struct.wtap_reader, ptr %88, i32 0, i32 5
  %90 = getelementptr inbounds nuw %struct.wtap_reader_buf, ptr %89, i32 0, i32 2
  %91 = load i32, ptr %90, align 8
  br label %92

92:                                               ; preds = %87, %85
  %93 = phi i32 [ %86, %85 ], [ %91, %87 ]
  store i32 %93, ptr %9, align 4
  %94 = load ptr, ptr %7, align 8
  %95 = getelementptr inbounds nuw %struct.wtap_reader, ptr %94, i32 0, i32 5
  %96 = getelementptr inbounds nuw %struct.wtap_reader_buf, ptr %95, i32 0, i32 1
  %97 = load ptr, ptr %96, align 8
  %98 = load i32, ptr %9, align 4
  %99 = zext i32 %98 to i64
  %100 = call ptr @memchr(ptr noundef %97, i32 noundef 10, i64 noundef %99) #18
  store ptr %100, ptr %11, align 8
  %101 = load ptr, ptr %11, align 8
  %102 = icmp ne ptr %101, null
  br i1 %102, label %103, label %114

103:                                              ; preds = %92
  %104 = load ptr, ptr %11, align 8
  %105 = load ptr, ptr %7, align 8
  %106 = getelementptr inbounds nuw %struct.wtap_reader, ptr %105, i32 0, i32 5
  %107 = getelementptr inbounds nuw %struct.wtap_reader_buf, ptr %106, i32 0, i32 1
  %108 = load ptr, ptr %107, align 8
  %109 = ptrtoint ptr %104 to i64
  %110 = ptrtoint ptr %108 to i64
  %111 = sub i64 %109, %110
  %112 = trunc i64 %111 to i32
  %113 = add i32 %112, 1
  store i32 %113, ptr %9, align 4
  br label %114

114:                                              ; preds = %103, %92
  %115 = load ptr, ptr %10, align 8
  %116 = load ptr, ptr %7, align 8
  %117 = getelementptr inbounds nuw %struct.wtap_reader, ptr %116, i32 0, i32 5
  %118 = getelementptr inbounds nuw %struct.wtap_reader_buf, ptr %117, i32 0, i32 1
  %119 = load ptr, ptr %118, align 8
  %120 = load i32, ptr %9, align 4
  %121 = zext i32 %120 to i64
  %122 = call ptr @memcpy.inline(ptr noundef %115, ptr noundef %119, i64 noundef %121) #14
  %123 = load i32, ptr %9, align 4
  %124 = load ptr, ptr %7, align 8
  %125 = getelementptr inbounds nuw %struct.wtap_reader, ptr %124, i32 0, i32 5
  %126 = getelementptr inbounds nuw %struct.wtap_reader_buf, ptr %125, i32 0, i32 2
  %127 = load i32, ptr %126, align 8
  %128 = sub i32 %127, %123
  store i32 %128, ptr %126, align 8
  %129 = load i32, ptr %9, align 4
  %130 = load ptr, ptr %7, align 8
  %131 = getelementptr inbounds nuw %struct.wtap_reader, ptr %130, i32 0, i32 5
  %132 = getelementptr inbounds nuw %struct.wtap_reader_buf, ptr %131, i32 0, i32 1
  %133 = load ptr, ptr %132, align 8
  %134 = zext i32 %129 to i64
  %135 = getelementptr i8, ptr %133, i64 %134
  store ptr %135, ptr %132, align 8
  %136 = load i32, ptr %9, align 4
  %137 = zext i32 %136 to i64
  %138 = load ptr, ptr %7, align 8
  %139 = getelementptr inbounds nuw %struct.wtap_reader, ptr %138, i32 0, i32 2
  %140 = load i64, ptr %139, align 8
  %141 = add i64 %140, %137
  store i64 %141, ptr %139, align 8
  %142 = load i32, ptr %9, align 4
  %143 = load i32, ptr %8, align 4
  %144 = sub i32 %143, %142
  store i32 %144, ptr %8, align 4
  %145 = load i32, ptr %9, align 4
  %146 = load ptr, ptr %10, align 8
  %147 = zext i32 %145 to i64
  %148 = getelementptr i8, ptr %146, i64 %147
  store ptr %148, ptr %10, align 8
  br label %149

149:                                              ; preds = %114
  %150 = load i32, ptr %8, align 4
  %151 = icmp ne i32 %150, 0
  br i1 %151, label %152, label %155

152:                                              ; preds = %149
  %153 = load ptr, ptr %11, align 8
  %154 = icmp eq ptr %153, null
  br label %155

155:                                              ; preds = %152, %149
  %156 = phi i1 [ false, %149 ], [ %154, %152 ]
  br i1 %156, label %48, label %157, !llvm.loop !20

157:                                              ; preds = %155, %76
  br label %158

158:                                              ; preds = %157, %41
  %159 = load ptr, ptr %10, align 8
  store i8 0, ptr %159, align 1
  %160 = load ptr, ptr %10, align 8
  store ptr %160, ptr %4, align 8
  store i32 1, ptr %12, align 4
  br label %161

161:                                              ; preds = %158, %75, %64, %59, %39, %24, %18
  call void @llvm.lifetime.end.p0(i64 8, ptr %11) #14
  call void @llvm.lifetime.end.p0(i64 8, ptr %10) #14
  call void @llvm.lifetime.end.p0(i64 4, ptr %9) #14
  call void @llvm.lifetime.end.p0(i64 4, ptr %8) #14
  %162 = load ptr, ptr %4, align 8
  ret ptr %162
}