; Function Attrs: null_pointer_is_valid sspstrong uwtable
define noundef ptr @file_getsp(ptr noundef %0, i32 noundef %1, ptr noundef %2) local_unnamed_addr #0 {
  %4 = icmp eq ptr %0, null
  %5 = icmp slt i32 %1, 1
  %or.cond = or i1 %4, %5
  br i1 %or.cond, label %gz_skip.exit, label %6

6:                                                ; preds = %3
  %7 = getelementptr inbounds nuw i8, ptr %2, i64 132
  %8 = load i32, ptr %7, align 4
  %.not = icmp eq i32 %8, 0
  br i1 %.not, label %9, label %gz_skip.exit

9:                                                ; preds = %6
  %10 = getelementptr inbounds nuw i8, ptr %2, i64 128
  %11 = load i8, ptr %10, align 8, !range !9, !noundef !10
  %12 = trunc nuw i8 %11 to i1
  br i1 %12, label %13, label %gz_skip.exit.thread

13:                                               ; preds = %9
  store i8 0, ptr %10, align 8
  %14 = getelementptr inbounds nuw i8, ptr %2, i64 120
  %15 = load i64, ptr %14, align 8
  %16 = getelementptr inbounds nuw i8, ptr %2, i64 48
  %.not22.i = icmp eq i64 %15, 0
  br i1 %.not22.i, label %gz_skip.exit.thread, label %.lr.ph.i

.lr.ph.i:                                         ; preds = %13
  %17 = getelementptr inbounds nuw i8, ptr %2, i64 72
  %18 = getelementptr inbounds nuw i8, ptr %2, i64 64
  %19 = getelementptr inbounds nuw i8, ptr %2, i64 16
  %20 = getelementptr inbounds nuw i8, ptr %2, i64 80
  br label %21

21:                                               ; preds = %45, %.lr.ph.i
  %.01823.i = phi i64 [ %15, %.lr.ph.i ], [ %.1.i, %45 ]
  %22 = load i32, ptr %17, align 8
  %.not20.i = icmp eq i32 %22, 0
  br i1 %.not20.i, label %34, label %23

23:                                               ; preds = %21
  %24 = zext i32 %22 to i64
  %25 = tail call i64 @llvm.smin.i64(i64 %.01823.i, i64 %24)
  %26 = trunc i64 %25 to i32
  %27 = sub i32 %22, %26
  store i32 %27, ptr %17, align 8
  %28 = load ptr, ptr %18, align 8
  %29 = and i64 %25, 4294967295
  %30 = getelementptr i8, ptr %28, i64 %29
  store ptr %30, ptr %18, align 8
  %31 = load i64, ptr %19, align 8
  %32 = add i64 %31, %29
  store i64 %32, ptr %19, align 8
  %33 = sub i64 %.01823.i, %29
  br label %45

34:                                               ; preds = %21
  %35 = load i32, ptr %7, align 4
  %.not21.i = icmp eq i32 %35, 0
  br i1 %.not21.i, label %36, label %gz_skip.exit

36:                                               ; preds = %34
  %37 = load i8, ptr %20, align 8, !range !9, !noundef !10
  %38 = trunc nuw i8 %37 to i1
  br i1 %38, label %39, label %42

39:                                               ; preds = %36
  %40 = load i32, ptr %16, align 8
  %41 = icmp eq i32 %40, 0
  br i1 %41, label %gz_skip.exit.thread, label %42

42:                                               ; preds = %39, %36
  %43 = tail call fastcc i32 @fill_out_buffer(ptr noundef %2)
  %44 = icmp eq i32 %43, -1
  br i1 %44, label %gz_skip.exit, label %45

45:                                               ; preds = %42, %23
  %.1.i = phi i64 [ %33, %23 ], [ %.01823.i, %42 ]
  %.not.i = icmp eq i64 %.1.i, 0
  br i1 %.not.i, label %gz_skip.exit.thread, label %21, !llvm.loop !17

gz_skip.exit.thread:                              ; preds = %39, %45, %13, %9
  %46 = add nsw i32 %1, -1
  %.not52 = icmp eq i32 %46, 0
  br i1 %.not52, label %.loopexit, label %.preheader

.preheader:                                       ; preds = %gz_skip.exit.thread
  %47 = getelementptr inbounds nuw i8, ptr %2, i64 72
  %48 = getelementptr inbounds nuw i8, ptr %2, i64 64
  %49 = getelementptr inbounds nuw i8, ptr %2, i64 16
  %.pre = load i32, ptr %47, align 8
  br label %50

50:                                               ; preds = %.preheader, %63
  %51 = phi i32 [ %75, %63 ], [ %.pre, %.preheader ]
  %.045 = phi i32 [ %80, %63 ], [ %46, %.preheader ]
  %.1 = phi ptr [ %81, %63 ], [ %0, %.preheader ]
  %52 = icmp eq i32 %51, 0
  br i1 %52, label %53, label %63

53:                                               ; preds = %50
  %54 = load i32, ptr %7, align 4
  %.not53 = icmp eq i32 %54, 0
  br i1 %.not53, label %55, label %gz_skip.exit

55:                                               ; preds = %53
  %56 = tail call fastcc i32 @fill_out_buffer(ptr noundef %2)
  %57 = icmp eq i32 %56, -1
  br i1 %57, label %gz_skip.exit, label %58

58:                                               ; preds = %55
  %59 = load i32, ptr %47, align 8
  %60 = icmp eq i32 %59, 0
  br i1 %60, label %61, label %63

61:                                               ; preds = %58
  %62 = icmp eq ptr %.1, %0
  br i1 %62, label %gz_skip.exit, label %.loopexit

63:                                               ; preds = %58, %50
  %64 = phi i32 [ %59, %58 ], [ %51, %50 ]
  %.045. = tail call i32 @llvm.umin.i32(i32 %64, i32 %.045)
  %65 = load ptr, ptr %48, align 8
  %66 = zext i32 %.045. to i64
  %67 = tail call ptr @memchr(ptr noundef %65, i32 noundef 10, i64 noundef %66) #24
  %.not54 = icmp eq ptr %67, null
  %68 = ptrtoint ptr %67 to i64
  %69 = ptrtoint ptr %65 to i64
  %70 = sub i64 %68, %69
  %71 = trunc i64 %70 to i32
  %72 = add i32 %71, 1
  %.044 = select i1 %.not54, i32 %.045., i32 %72
  %73 = zext i32 %.044 to i64
  tail call void @llvm.memcpy.p0.p0.i64(ptr noundef align 1 %.1, ptr noundef align 1 %65, i64 noundef range(i64 0, 4294967296) %73, i1 noundef false) #21
  %74 = load i32, ptr %47, align 8
  %75 = sub i32 %74, %.044
  store i32 %75, ptr %47, align 8
  %76 = load ptr, ptr %48, align 8
  %77 = getelementptr i8, ptr %76, i64 %73
  store ptr %77, ptr %48, align 8
  %78 = load i64, ptr %49, align 8
  %79 = add i64 %78, %73
  store i64 %79, ptr %49, align 8
  %80 = sub i32 %.045, %.044
  %81 = getelementptr i8, ptr %.1, i64 %73
  %82 = icmp ne i32 %80, 0
  %83 = and i1 %.not54, %82
  br i1 %83, label %50, label %.loopexit, !llvm.loop !39

.loopexit:                                        ; preds = %63, %61, %gz_skip.exit.thread
  %.043 = phi ptr [ %.1, %61 ], [ %0, %gz_skip.exit.thread ], [ %81, %63 ]
  store i8 0, ptr %.043, align 1
  br label %gz_skip.exit

gz_skip.exit:                                     ; preds = %42, %34, %55, %53, %61, %6, %3, %.loopexit
  %.0 = phi ptr [ %.043, %.loopexit ], [ null, %3 ], [ null, %6 ], [ null, %61 ], [ null, %53 ], [ null, %55 ], [ null, %34 ], [ null, %42 ]
  ret ptr %.0
}